target datalayout = "e-m:e-p270:32:32-p271:32:32-p272:64:64-i64:64-i128:128-f80:128-n8:16:32:64-S128"
target triple = "x86_64-pc-linux-gnu"

%"class.absl::uint128" = type { i64, i64 }

; Function Attrs: mustprogress nounwind uwtable
define linkonce_odr dso_local void @_ZN4absl7uint128C2Emm(ptr noundef nonnull align 16 dereferenceable(16) %0, i64 noundef %1, i64 noundef %2) unnamed_addr #3 comdat align 2 {
  %4 = alloca ptr, align 8
  %5 = alloca i64, align 8
  %6 = alloca i64, align 8
  store ptr %0, ptr %4, align 8, !tbaa !4
  store i64 %1, ptr %5, align 8, !tbaa !12
  store i64 %2, ptr %6, align 8, !tbaa !12
  %7 = load ptr, ptr %4, align 8
  %8 = getelementptr inbounds nuw %"class.absl::uint128", ptr %7, i32 0, i32 0
  %9 = load i64, ptr %6, align 8, !tbaa !12
  store i64 %9, ptr %8, align 16, !tbaa !56
  %10 = getelementptr inbounds nuw %"class.absl::uint128", ptr %7, i32 0, i32 1
  %11 = load i64, ptr %5, align 8, !tbaa !12
  store i64 %11, ptr %10, align 8, !tbaa !58
  ret void
}

; Function Attrs: mustprogress uwtable
define linkonce_odr dso_local { i64, i64 } @_ZN4absl11MakeUint128Emm(i64 noundef %0, i64 noundef %1) #0 comdat {
  %3 = alloca %"class.absl::uint128", align 16
  %4 = alloca i64, align 8
  %5 = alloca i64, align 8
  store i64 %0, ptr %4, align 8, !tbaa !12
  store i64 %1, ptr %5, align 8, !tbaa !12
  %6 = load i64, ptr %4, align 8, !tbaa !12
  %7 = load i64, ptr %5, align 8, !tbaa !12
  call void @_ZN4absl7uint128C2Emm(ptr noundef nonnull align 16 dereferenceable(16) %3, i64 noundef %6, i64 noundef %7)
  %8 = load { i64, i64 }, ptr %3, align 16
  ret { i64, i64 } %8
}

; Function Attrs: inlinehint mustprogress nounwind uwtable
define linkonce_odr dso_local noundef x86_fp80 @_ZSt5ldexpei(x86_fp80 noundef %0, i32 noundef %1) #4 comdat {
  %3 = alloca x86_fp80, align 16
  %4 = alloca i32, align 4
  store x86_fp80 %0, ptr %3, align 16, !tbaa !18
  store i32 %1, ptr %4, align 4, !tbaa !16
  %5 = load x86_fp80, ptr %3, align 16, !tbaa !18
  %6 = load i32, ptr %4, align 4, !tbaa !16
  %7 = call x86_fp80 @ldexpl(x86_fp80 noundef %5, i32 noundef %6) #16, !tbaa !16
  ret x86_fp80 %7
}

; Function Attrs: mustprogress uwtable
define internal { i64, i64 } @_ZN4absl12_GLOBAL__N_120MakeUint128FromFloatIeEENS_7uint128ET_(x86_fp80 noundef %0) #0 {
  %2 = alloca %"class.absl::uint128", align 16
  %3 = alloca x86_fp80, align 16
  %4 = alloca i64, align 8
  %5 = alloca i64, align 8
  store x86_fp80 %0, ptr %3, align 16, !tbaa !18
  %6 = load x86_fp80, ptr %3, align 16, !tbaa !18
  %7 = call noundef x86_fp80 @_ZSt5ldexpei(x86_fp80 noundef 0xK3FFF8000000000000000, i32 noundef 64)
  %8 = fcmp oge x86_fp80 %6, %7
  br i1 %8, label %9, label %26

9:                                                ; preds = %1
  call void @llvm.lifetime.start.p0(i64 8, ptr %4) #16
  %10 = load x86_fp80, ptr %3, align 16, !tbaa !18
  %11 = call noundef x86_fp80 @_ZSt5ldexpei(x86_fp80 noundef %10, i32 noundef -64)
  %12 = fptoui x86_fp80 %11 to i64
  store i64 %12, ptr %4, align 8, !tbaa !12
  call void @llvm.lifetime.start.p0(i64 8, ptr %5) #16
  %13 = load x86_fp80, ptr %3, align 16, !tbaa !18
  %14 = load i64, ptr %4, align 8, !tbaa !12
  %15 = uitofp i64 %14 to x86_fp80
  %16 = call noundef x86_fp80 @_ZSt5ldexpei(x86_fp80 noundef %15, i32 noundef 64)
  %17 = fsub x86_fp80 %13, %16
  %18 = fptoui x86_fp80 %17 to i64
  store i64 %18, ptr %5, align 8, !tbaa !12
  %19 = load i64, ptr %4, align 8, !tbaa !12
  %20 = load i64, ptr %5, align 8, !tbaa !12
  %21 = call { i64, i64 } @_ZN4absl11MakeUint128Emm(i64 noundef %19, i64 noundef %20)
  %22 = getelementptr inbounds nuw { i64, i64 }, ptr %2, i32 0, i32 0
  %23 = extractvalue { i64, i64 } %21, 0
  store i64 %23, ptr %22, align 16
  %24 = getelementptr inbounds nuw { i64, i64 }, ptr %2, i32 0, i32 1
  %25 = extractvalue { i64, i64 } %21, 1
  store i64 %25, ptr %24, align 8
  call void @llvm.lifetime.end.p0(i64 8, ptr %5) #16
  call void @llvm.lifetime.end.p0(i64 8, ptr %4) #16
  br label %34

26:                                               ; preds = %1
  %27 = load x86_fp80, ptr %3, align 16, !tbaa !18
  %28 = fptoui x86_fp80 %27 to i64
  %29 = call { i64, i64 } @_ZN4absl11MakeUint128Emm(i64 noundef 0, i64 noundef %28)
  %30 = getelementptr inbounds nuw { i64, i64 }, ptr %2, i32 0, i32 0
  %31 = extractvalue { i64, i64 } %29, 0
  store i64 %31, ptr %30, align 16
  %32 = getelementptr inbounds nuw { i64, i64 }, ptr %2, i32 0, i32 1
  %33 = extractvalue { i64, i64 } %29, 1
  store i64 %33, ptr %32, align 8
  br label %34

34:                                               ; preds = %26, %9
  %35 = load { i64, i64 }, ptr %2, align 16
  ret { i64, i64 } %35
}

; Function Attrs: mustprogress uwtable
define dso_local void @_ZN4absl7uint128C2Ee(ptr noundef nonnull align 16 dereferenceable(16) %0, x86_fp80 noundef %1) unnamed_addr #0 align 2 {
  %3 = alloca ptr, align 8
  %4 = alloca x86_fp80, align 16
  %5 = alloca %"class.absl::uint128", align 16
  store ptr %0, ptr %3, align 8, !tbaa !4
  store x86_fp80 %1, ptr %4, align 16, !tbaa !18
  %6 = load ptr, ptr %3, align 8
  call void @llvm.lifetime.start.p0(i64 16, ptr %5) #16
  %7 = load x86_fp80, ptr %4, align 16, !tbaa !18
  %8 = call { i64, i64 } @_ZN4absl12_GLOBAL__N_120MakeUint128FromFloatIeEENS_7uint128ET_(x86_fp80 noundef %7)
  %9 = getelementptr inbounds nuw { i64, i64 }, ptr %5, i32 0, i32 0
  %10 = extractvalue { i64, i64 } %8, 0
  store i64 %10, ptr %9, align 16
  %11 = getelementptr inbounds nuw { i64, i64 }, ptr %5, i32 0, i32 1
  %12 = extractvalue { i64, i64 } %8, 1
  store i64 %12, ptr %11, align 8
  call void @llvm.memcpy.p0.p0.i64(ptr align 16 %6, ptr align 16 %5, i64 16, i1 false), !tbaa.struct !11
  call void @llvm.lifetime.end.p0(i64 16, ptr %5) #16
  ret void
}